target datalayout = "e-m:e-p270:32:32-p271:32:32-p272:64:64-i64:64-i128:128-f80:128-n8:16:32:64-S128"
target triple = "x86_64-pc-linux-gnu"

; Function Attrs: nounwind uwtable
define i32 @H5LTget_attribute_ndims(i64 noundef %0, ptr noundef %1, ptr noundef %2, ptr noundef %3) #0 {
  %5 = alloca i32, align 4
  %6 = alloca i64, align 8
  %7 = alloca ptr, align 8
  %8 = alloca ptr, align 8
  %9 = alloca ptr, align 8
  %10 = alloca i64, align 8
  %11 = alloca i64, align 8
  %12 = alloca i64, align 8
  %13 = alloca i32, align 4
  store i64 %0, ptr %6, align 8, !tbaa !3
  store ptr %1, ptr %7, align 8, !tbaa !7
  store ptr %2, ptr %8, align 8, !tbaa !7
  store ptr %3, ptr %9, align 8, !tbaa !22
  call void @llvm.lifetime.start.p0(i64 8, ptr %10) #11
  call void @llvm.lifetime.start.p0(i64 8, ptr %11) #11
  call void @llvm.lifetime.start.p0(i64 8, ptr %12) #11
  %14 = load ptr, ptr %7, align 8, !tbaa !7
  %15 = icmp eq ptr %14, null
  br i1 %15, label %16, label %17

16:                                               ; preds = %4
  store i32 -1, ptr %5, align 4
  store i32 1, ptr %13, align 4
  br label %67

17:                                               ; preds = %4
  %18 = load ptr, ptr %8, align 8, !tbaa !7
  %19 = icmp eq ptr %18, null
  br i1 %19, label %20, label %21

20:                                               ; preds = %17
  store i32 -1, ptr %5, align 4
  store i32 1, ptr %13, align 4
  br label %67

21:                                               ; preds = %17
  %22 = load i64, ptr %6, align 8, !tbaa !3
  %23 = load ptr, ptr %7, align 8, !tbaa !7
  %24 = call i64 @H5Oopen(i64 noundef %22, ptr noundef %23, i64 noundef 0)
  store i64 %24, ptr %12, align 8, !tbaa !3
  %25 = icmp slt i64 %24, 0
  br i1 %25, label %26, label %27

26:                                               ; preds = %21
  store i32 -1, ptr %5, align 4
  store i32 1, ptr %13, align 4
  br label %67

27:                                               ; preds = %21
  %28 = load i64, ptr %12, align 8, !tbaa !3
  %29 = load ptr, ptr %8, align 8, !tbaa !7
  %30 = call i64 @H5Aopen(i64 noundef %28, ptr noundef %29, i64 noundef 0)
  store i64 %30, ptr %10, align 8, !tbaa !3
  %31 = icmp slt i64 %30, 0
  br i1 %31, label %32, label %35

32:                                               ; preds = %27
  %33 = load i64, ptr %12, align 8, !tbaa !3
  %34 = call i32 @H5Oclose(i64 noundef %33)
  store i32 -1, ptr %5, align 4
  store i32 1, ptr %13, align 4
  br label %67

35:                                               ; preds = %27
  %36 = load i64, ptr %10, align 8, !tbaa !3
  %37 = call i64 @H5Aget_space(i64 noundef %36)
  store i64 %37, ptr %11, align 8, !tbaa !3
  %38 = icmp slt i64 %37, 0
  br i1 %38, label %39, label %40

39:                                               ; preds = %35
  br label %62

40:                                               ; preds = %35
  %41 = load i64, ptr %11, align 8, !tbaa !3
  %42 = call i32 @H5Sget_simple_extent_ndims(i64 noundef %41)
  %43 = load ptr, ptr %9, align 8, !tbaa !22
  store i32 %42, ptr %43, align 4, !tbaa !10
  %44 = icmp slt i32 %42, 0
  br i1 %44, label %45, label %46

45:                                               ; preds = %40
  br label %62

46:                                               ; preds = %40
  %47 = load i64, ptr %11, align 8, !tbaa !3
  %48 = call i32 @H5Sclose(i64 noundef %47)
  %49 = icmp slt i32 %48, 0
  br i1 %49, label %50, label %51

50:                                               ; preds = %46
  br label %62

51:                                               ; preds = %46
  %52 = load i64, ptr %10, align 8, !tbaa !3
  %53 = call i32 @H5Aclose(i64 noundef %52)
  %54 = icmp ne i32 %53, 0
  br i1 %54, label %55, label %56

55:                                               ; preds = %51
  br label %62

56:                                               ; preds = %51
  %57 = load i64, ptr %12, align 8, !tbaa !3
  %58 = call i32 @H5Oclose(i64 noundef %57)
  %59 = icmp slt i32 %58, 0
  br i1 %59, label %60, label %61

60:                                               ; preds = %56
  store i32 -1, ptr %5, align 4
  store i32 1, ptr %13, align 4
  br label %67

61:                                               ; preds = %56
  store i32 0, ptr %5, align 4
  store i32 1, ptr %13, align 4
  br label %67

62:                                               ; preds = %55, %50, %45, %39
  %63 = load i64, ptr %10, align 8, !tbaa !3
  %64 = call i32 @H5Aclose(i64 noundef %63)
  %65 = load i64, ptr %12, align 8, !tbaa !3
  %66 = call i32 @H5Oclose(i64 noundef %65)
  store i32 -1, ptr %5, align 4
  store i32 1, ptr %13, align 4
  br label %67

67:                                               ; preds = %62, %61, %60, %32, %26, %20, %16
  call void @llvm.lifetime.end.p0(i64 8, ptr %12) #11
  call void @llvm.lifetime.end.p0(i64 8, ptr %11) #11
  call void @llvm.lifetime.end.p0(i64 8, ptr %10) #11
  %68 = load i32, ptr %5, align 4
  ret i32 %68
}