; Function Attrs: nounwind uwtable
define range(i32 -1, 1) i32 @H5LTget_attribute_ndims(i64 noundef %0, ptr noundef %1, ptr noundef %2, ptr noundef writeonly captures(none) %3) local_unnamed_addr #0 {
  %5 = icmp eq ptr %1, null
  %6 = icmp eq ptr %2, null
  %or.cond = or i1 %5, %6
  br i1 %or.cond, label %31, label %7

7:                                                ; preds = %4
  %8 = tail call i64 @H5Oopen(i64 noundef %0, ptr noundef nonnull %1, i64 noundef 0) #20
  %9 = icmp slt i64 %8, 0
  br i1 %9, label %31, label %10

10:                                               ; preds = %7
  %11 = tail call i64 @H5Aopen(i64 noundef %8, ptr noundef nonnull %2, i64 noundef 0) #20
  %12 = icmp slt i64 %11, 0
  br i1 %12, label %13, label %15

13:                                               ; preds = %10
  %14 = tail call i32 @H5Oclose(i64 noundef %8) #20
  br label %31

15:                                               ; preds = %10
  %16 = tail call i64 @H5Aget_space(i64 noundef %11) #20
  %17 = icmp slt i64 %16, 0
  br i1 %17, label %28, label %18

18:                                               ; preds = %15
  %19 = tail call i32 @H5Sget_simple_extent_ndims(i64 noundef %16) #20
  store i32 %19, ptr %3, align 4, !tbaa !3
  %20 = icmp slt i32 %19, 0
  br i1 %20, label %28, label %21

21:                                               ; preds = %18
  %22 = tail call i32 @H5Sclose(i64 noundef %16) #20
  %23 = icmp slt i32 %22, 0
  br i1 %23, label %28, label %24

24:                                               ; preds = %21
  %25 = tail call i32 @H5Aclose(i64 noundef %11) #20
  %.not = icmp eq i32 %25, 0
  br i1 %.not, label %26, label %28

26:                                               ; preds = %24
  %27 = tail call i32 @H5Oclose(i64 noundef %8) #20
  %.lobit = ashr i32 %27, 31
  br label %31

28:                                               ; preds = %24, %21, %18, %15
  %29 = tail call i32 @H5Aclose(i64 noundef %11) #20
  %30 = tail call i32 @H5Oclose(i64 noundef %8) #20
  br label %31

31:                                               ; preds = %26, %7, %4, %28, %13
  %.0 = phi i32 [ -1, %13 ], [ -1, %28 ], [ -1, %4 ], [ -1, %7 ], [ %.lobit, %26 ]
  ret i32 %.0
}